target datalayout = "e-m:e-p270:32:32-p271:32:32-p272:64:64-i64:64-i128:128-f80:128-n8:16:32:64-S128"
target triple = "x86_64-pc-linux-gnu"

%struct.stbrp_context = type { i32, i32, i32, i32, i32, i32, ptr, ptr, [2 x %struct.stbrp_node] }
%struct.stbrp_node = type { i32, i32, ptr }

; Function Attrs: nounwind uwtable
define void @stbrp_setup_allow_out_of_mem(ptr noundef %0, i32 noundef %1) #0 {
  %3 = alloca ptr, align 8
  %4 = alloca i32, align 4
  store ptr %0, ptr %3, align 8, !tbaa !3
  store i32 %1, ptr %4, align 4, !tbaa !8
  %5 = load i32, ptr %4, align 4, !tbaa !8
  %6 = icmp ne i32 %5, 0
  br i1 %6, label %7, label %10

7:                                                ; preds = %2
  %8 = load ptr, ptr %3, align 8, !tbaa !3
  %9 = getelementptr inbounds nuw %struct.stbrp_context, ptr %8, i32 0, i32 2
  store i32 1, ptr %9, align 8, !tbaa !14
  br label %25

10:                                               ; preds = %2
  %11 = load ptr, ptr %3, align 8, !tbaa !3
  %12 = getelementptr inbounds nuw %struct.stbrp_context, ptr %11, i32 0, i32 0
  %13 = load i32, ptr %12, align 8, !tbaa !15
  %14 = load ptr, ptr %3, align 8, !tbaa !3
  %15 = getelementptr inbounds nuw %struct.stbrp_context, ptr %14, i32 0, i32 5
  %16 = load i32, ptr %15, align 4, !tbaa !16
  %17 = add nsw i32 %13, %16
  %18 = sub nsw i32 %17, 1
  %19 = load ptr, ptr %3, align 8, !tbaa !3
  %20 = getelementptr inbounds nuw %struct.stbrp_context, ptr %19, i32 0, i32 5
  %21 = load i32, ptr %20, align 4, !tbaa !16
  %22 = sdiv i32 %18, %21
  %23 = load ptr, ptr %3, align 8, !tbaa !3
  %24 = getelementptr inbounds nuw %struct.stbrp_context, ptr %23, i32 0, i32 2
  store i32 %22, ptr %24, align 8, !tbaa !14
  br label %25

25:                                               ; preds = %10, %7
  ret void
}

; Function Attrs: nounwind uwtable
define void @stbrp_init_target(ptr noundef %0, i32 noundef %1, i32 noundef %2, ptr noundef %3, i32 noundef %4) #0 {
  %6 = alloca ptr, align 8
  %7 = alloca i32, align 4
  %8 = alloca i32, align 4
  %9 = alloca ptr, align 8
  %10 = alloca i32, align 4
  %11 = alloca i32, align 4
  store ptr %0, ptr %6, align 8, !tbaa !3
  store i32 %1, ptr %7, align 4, !tbaa !8
  store i32 %2, ptr %8, align 4, !tbaa !8
  store ptr %3, ptr %9, align 8, !tbaa !17
  store i32 %4, ptr %10, align 4, !tbaa !8
  call void @llvm.lifetime.start.p0(i64 4, ptr %11) #3
  store i32 0, ptr %11, align 4, !tbaa !8
  br label %12

12:                                               ; preds = %28, %5
  %13 = load i32, ptr %11, align 4, !tbaa !8
  %14 = load i32, ptr %10, align 4, !tbaa !8
  %15 = sub nsw i32 %14, 1
  %16 = icmp slt i32 %13, %15
  br i1 %16, label %17, label %31

17:                                               ; preds = %12
  %18 = load ptr, ptr %9, align 8, !tbaa !17
  %19 = load i32, ptr %11, align 4, !tbaa !8
  %20 = add nsw i32 %19, 1
  %21 = sext i32 %20 to i64
  %22 = getelementptr inbounds %struct.stbrp_node, ptr %18, i64 %21
  %23 = load ptr, ptr %9, align 8, !tbaa !17
  %24 = load i32, ptr %11, align 4, !tbaa !8
  %25 = sext i32 %24 to i64
  %26 = getelementptr inbounds %struct.stbrp_node, ptr %23, i64 %25
  %27 = getelementptr inbounds nuw %struct.stbrp_node, ptr %26, i32 0, i32 2
  store ptr %22, ptr %27, align 8, !tbaa !18
  br label %28

28:                                               ; preds = %17
  %29 = load i32, ptr %11, align 4, !tbaa !8
  %30 = add nsw i32 %29, 1
  store i32 %30, ptr %11, align 4, !tbaa !8
  br label %12, !llvm.loop !20

31:                                               ; preds = %12
  %32 = load ptr, ptr %9, align 8, !tbaa !17
  %33 = load i32, ptr %11, align 4, !tbaa !8
  %34 = sext i32 %33 to i64
  %35 = getelementptr inbounds %struct.stbrp_node, ptr %32, i64 %34
  %36 = getelementptr inbounds nuw %struct.stbrp_node, ptr %35, i32 0, i32 2
  store ptr null, ptr %36, align 8, !tbaa !18
  %37 = load ptr, ptr %6, align 8, !tbaa !3
  %38 = getelementptr inbounds nuw %struct.stbrp_context, ptr %37, i32 0, i32 3
  store i32 1, ptr %38, align 4, !tbaa !10
  %39 = load ptr, ptr %6, align 8, !tbaa !3
  %40 = getelementptr inbounds nuw %struct.stbrp_context, ptr %39, i32 0, i32 4
  store i32 0, ptr %40, align 8, !tbaa !13
  %41 = load ptr, ptr %9, align 8, !tbaa !17
  %42 = getelementptr inbounds %struct.stbrp_node, ptr %41, i64 0
  %43 = load ptr, ptr %6, align 8, !tbaa !3
  %44 = getelementptr inbounds nuw %struct.stbrp_context, ptr %43, i32 0, i32 7
  store ptr %42, ptr %44, align 8, !tbaa !22
  %45 = load ptr, ptr %6, align 8, !tbaa !3
  %46 = getelementptr inbounds nuw %struct.stbrp_context, ptr %45, i32 0, i32 8
  %47 = getelementptr inbounds [2 x %struct.stbrp_node], ptr %46, i64 0, i64 0
  %48 = load ptr, ptr %6, align 8, !tbaa !3
  %49 = getelementptr inbounds nuw %struct.stbrp_context, ptr %48, i32 0, i32 6
  store ptr %47, ptr %49, align 8, !tbaa !23
  %50 = load i32, ptr %7, align 4, !tbaa !8
  %51 = load ptr, ptr %6, align 8, !tbaa !3
  %52 = getelementptr inbounds nuw %struct.stbrp_context, ptr %51, i32 0, i32 0
  store i32 %50, ptr %52, align 8, !tbaa !15
  %53 = load i32, ptr %8, align 4, !tbaa !8
  %54 = load ptr, ptr %6, align 8, !tbaa !3
  %55 = getelementptr inbounds nuw %struct.stbrp_context, ptr %54, i32 0, i32 1
  store i32 %53, ptr %55, align 4, !tbaa !24
  %56 = load i32, ptr %10, align 4, !tbaa !8
  %57 = load ptr, ptr %6, align 8, !tbaa !3
  %58 = getelementptr inbounds nuw %struct.stbrp_context, ptr %57, i32 0, i32 5
  store i32 %56, ptr %58, align 4, !tbaa !16
  %59 = load ptr, ptr %6, align 8, !tbaa !3
  call void @stbrp_setup_allow_out_of_mem(ptr noundef %59, i32 noundef 0)
  %60 = load ptr, ptr %6, align 8, !tbaa !3
  %61 = getelementptr inbounds nuw %struct.stbrp_context, ptr %60, i32 0, i32 8
  %62 = getelementptr inbounds [2 x %struct.stbrp_node], ptr %61, i64 0, i64 0
  %63 = getelementptr inbounds nuw %struct.stbrp_node, ptr %62, i32 0, i32 0
  store i32 0, ptr %63, align 8, !tbaa !25
  %64 = load ptr, ptr %6, align 8, !tbaa !3
  %65 = getelementptr inbounds nuw %struct.stbrp_context, ptr %64, i32 0, i32 8
  %66 = getelementptr inbounds [2 x %struct.stbrp_node], ptr %65, i64 0, i64 0
  %67 = getelementptr inbounds nuw %struct.stbrp_node, ptr %66, i32 0, i32 1
  store i32 0, ptr %67, align 4, !tbaa !26
  %68 = load ptr, ptr %6, align 8, !tbaa !3
  %69 = getelementptr inbounds nuw %struct.stbrp_context, ptr %68, i32 0, i32 8
  %70 = getelementptr inbounds [2 x %struct.stbrp_node], ptr %69, i64 0, i64 1
  %71 = load ptr, ptr %6, align 8, !tbaa !3
  %72 = getelementptr inbounds nuw %struct.stbrp_context, ptr %71, i32 0, i32 8
  %73 = getelementptr inbounds [2 x %struct.stbrp_node], ptr %72, i64 0, i64 0
  %74 = getelementptr inbounds nuw %struct.stbrp_node, ptr %73, i32 0, i32 2
  store ptr %70, ptr %74, align 8, !tbaa !18
  %75 = load i32, ptr %7, align 4, !tbaa !8
  %76 = load ptr, ptr %6, align 8, !tbaa !3
  %77 = getelementptr inbounds nuw %struct.stbrp_context, ptr %76, i32 0, i32 8
  %78 = getelementptr inbounds [2 x %struct.stbrp_node], ptr %77, i64 0, i64 1
  %79 = getelementptr inbounds nuw %struct.stbrp_node, ptr %78, i32 0, i32 0
  store i32 %75, ptr %79, align 8, !tbaa !25
  %80 = load ptr, ptr %6, align 8, !tbaa !3
  %81 = getelementptr inbounds nuw %struct.stbrp_context, ptr %80, i32 0, i32 8
  %82 = getelementptr inbounds [2 x %struct.stbrp_node], ptr %81, i64 0, i64 1
  %83 = getelementptr inbounds nuw %struct.stbrp_node, ptr %82, i32 0, i32 1
  store i32 1073741824, ptr %83, align 4, !tbaa !26
  %84 = load ptr, ptr %6, align 8, !tbaa !3
  %85 = getelementptr inbounds nuw %struct.stbrp_context, ptr %84, i32 0, i32 8
  %86 = getelementptr inbounds [2 x %struct.stbrp_node], ptr %85, i64 0, i64 1
  %87 = getelementptr inbounds nuw %struct.stbrp_node, ptr %86, i32 0, i32 2
  store ptr null, ptr %87, align 8, !tbaa !18
  call void @llvm.lifetime.end.p0(i64 4, ptr %11) #3
  ret void
}